target datalayout = "e-m:e-p270:32:32-p271:32:32-p272:64:64-i64:64-i128:128-f80:128-n8:16:32:64-S128"
target triple = "x86_64-pc-linux-gnu"

%struct.jpeg_decompress_struct = type { ptr, ptr, ptr, ptr, i32, i32, ptr, i32, i32, i32, i32, i32, i32, i32, double, i32, i32, i32, i32, i32, i32, i32, i32, i32, i32, i32, i32, i32, i32, i32, i32, i32, i32, ptr, i32, i32, i32, i32, i32, ptr, [4 x ptr], [4 x ptr], [4 x ptr], i32, ptr, i32, i32, [16 x i8], [16 x i8], [16 x i8], i32, i32, i8, i8, i8, i16, i16, i32, i8, i32, ptr, i32, i32, i32, i32, ptr, i32, [4 x ptr], i32, i32, i32, [10 x i32], i32, i32, i32, i32, i32, ptr, ptr, ptr, ptr, ptr, ptr, ptr, ptr, ptr, ptr, ptr }
%struct.jpeg_error_mgr = type { ptr, ptr, ptr, ptr, ptr, i32, %union.anon, i32, i64, ptr, i32, ptr, i32, i32 }
%union.anon = type { [8 x i32], [48 x i8] }
%struct.bitread_working_state = type { ptr, i64, i64, i32, ptr }
%struct.jpeg_source_mgr = type { ptr, i64, ptr, ptr, ptr, ptr, ptr }
%struct.jpeg_entropy_decoder = type { ptr, ptr, ptr, ptr, i32 }

; Function Attrs: nounwind uwtable
define i32 @jpeg_fill_bit_buffer(ptr noundef %0, i64 noundef %1, i32 noundef %2, i32 noundef %3) #0 {
  %5 = alloca i32, align 4
  %6 = alloca ptr, align 8
  %7 = alloca i64, align 8
  %8 = alloca i32, align 4
  %9 = alloca i32, align 4
  %10 = alloca ptr, align 8
  %11 = alloca i64, align 8
  %12 = alloca ptr, align 8
  %13 = alloca i32, align 4
  store ptr %0, ptr %6, align 8
  store i64 %1, ptr %7, align 8
  store i32 %2, ptr %8, align 4
  store i32 %3, ptr %9, align 4
  %14 = load ptr, ptr %6, align 8
  %15 = getelementptr inbounds %struct.bitread_working_state, ptr %14, i32 0, i32 0
  %16 = load ptr, ptr %15, align 8
  store ptr %16, ptr %10, align 8
  %17 = load ptr, ptr %6, align 8
  %18 = getelementptr inbounds %struct.bitread_working_state, ptr %17, i32 0, i32 1
  %19 = load i64, ptr %18, align 8
  store i64 %19, ptr %11, align 8
  %20 = load ptr, ptr %6, align 8
  %21 = getelementptr inbounds %struct.bitread_working_state, ptr %20, i32 0, i32 4
  %22 = load ptr, ptr %21, align 8
  store ptr %22, ptr %12, align 8
  %23 = load ptr, ptr %12, align 8
  %24 = getelementptr inbounds %struct.jpeg_decompress_struct, ptr %23, i32 0, i32 76
  %25 = load i32, ptr %24, align 4
  %26 = icmp eq i32 %25, 0
  br i1 %26, label %27, label %117

27:                                               ; preds = %4
  br label %28

28:                                               ; preds = %108, %27
  %29 = load i32, ptr %8, align 4
  %30 = icmp slt i32 %29, 57
  br i1 %30, label %31, label %116

31:                                               ; preds = %28
  %32 = load i64, ptr %11, align 8
  %33 = icmp eq i64 %32, 0
  br i1 %33, label %34, label %55

34:                                               ; preds = %31
  %35 = load ptr, ptr %12, align 8
  %36 = getelementptr inbounds %struct.jpeg_decompress_struct, ptr %35, i32 0, i32 6
  %37 = load ptr, ptr %36, align 8
  %38 = getelementptr inbounds %struct.jpeg_source_mgr, ptr %37, i32 0, i32 3
  %39 = load ptr, ptr %38, align 8
  %40 = load ptr, ptr %12, align 8
  %41 = call i32 %39(ptr noundef %40)
  %42 = icmp ne i32 %41, 0
  br i1 %42, label %44, label %43

43:                                               ; preds = %34
  store i32 0, ptr %5, align 4
  br label %164

44:                                               ; preds = %34
  %45 = load ptr, ptr %12, align 8
  %46 = getelementptr inbounds %struct.jpeg_decompress_struct, ptr %45, i32 0, i32 6
  %47 = load ptr, ptr %46, align 8
  %48 = getelementptr inbounds %struct.jpeg_source_mgr, ptr %47, i32 0, i32 0
  %49 = load ptr, ptr %48, align 8
  store ptr %49, ptr %10, align 8
  %50 = load ptr, ptr %12, align 8
  %51 = getelementptr inbounds %struct.jpeg_decompress_struct, ptr %50, i32 0, i32 6
  %52 = load ptr, ptr %51, align 8
  %53 = getelementptr inbounds %struct.jpeg_source_mgr, ptr %52, i32 0, i32 1
  %54 = load i64, ptr %53, align 8
  store i64 %54, ptr %11, align 8
  br label %55

55:                                               ; preds = %44, %31
  %56 = load i64, ptr %11, align 8
  %57 = add i64 %56, -1
  store i64 %57, ptr %11, align 8
  %58 = load ptr, ptr %10, align 8
  %59 = getelementptr inbounds i8, ptr %58, i32 1
  store ptr %59, ptr %10, align 8
  %60 = load i8, ptr %58, align 1
  %61 = zext i8 %60 to i32
  store i32 %61, ptr %13, align 4
  %62 = load i32, ptr %13, align 4
  %63 = icmp eq i32 %62, 255
  br i1 %63, label %64, label %108

64:                                               ; preds = %55
  br label %65

65:                                               ; preds = %96, %64
  %66 = load i64, ptr %11, align 8
  %67 = icmp eq i64 %66, 0
  br i1 %67, label %68, label %89

68:                                               ; preds = %65
  %69 = load ptr, ptr %12, align 8
  %70 = getelementptr inbounds %struct.jpeg_decompress_struct, ptr %69, i32 0, i32 6
  %71 = load ptr, ptr %70, align 8
  %72 = getelementptr inbounds %struct.jpeg_source_mgr, ptr %71, i32 0, i32 3
  %73 = load ptr, ptr %72, align 8
  %74 = load ptr, ptr %12, align 8
  %75 = call i32 %73(ptr noundef %74)
  %76 = icmp ne i32 %75, 0
  br i1 %76, label %78, label %77

77:                                               ; preds = %68
  store i32 0, ptr %5, align 4
  br label %164

78:                                               ; preds = %68
  %79 = load ptr, ptr %12, align 8
  %80 = getelementptr inbounds %struct.jpeg_decompress_struct, ptr %79, i32 0, i32 6
  %81 = load ptr, ptr %80, align 8
  %82 = getelementptr inbounds %struct.jpeg_source_mgr, ptr %81, i32 0, i32 0
  %83 = load ptr, ptr %82, align 8
  store ptr %83, ptr %10, align 8
  %84 = load ptr, ptr %12, align 8
  %85 = getelementptr inbounds %struct.jpeg_decompress_struct, ptr %84, i32 0, i32 6
  %86 = load ptr, ptr %85, align 8
  %87 = getelementptr inbounds %struct.jpeg_source_mgr, ptr %86, i32 0, i32 1
  %88 = load i64, ptr %87, align 8
  store i64 %88, ptr %11, align 8
  br label %89

89:                                               ; preds = %78, %65
  %90 = load i64, ptr %11, align 8
  %91 = add i64 %90, -1
  store i64 %91, ptr %11, align 8
  %92 = load ptr, ptr %10, align 8
  %93 = getelementptr inbounds i8, ptr %92, i32 1
  store ptr %93, ptr %10, align 8
  %94 = load i8, ptr %92, align 1
  %95 = zext i8 %94 to i32
  store i32 %95, ptr %13, align 4
  br label %96

96:                                               ; preds = %89
  %97 = load i32, ptr %13, align 4
  %98 = icmp eq i32 %97, 255
  br i1 %98, label %65, label %99, !llvm.loop !15

99:                                               ; preds = %96
  %100 = load i32, ptr %13, align 4
  %101 = icmp eq i32 %100, 0
  br i1 %101, label %102, label %103

102:                                              ; preds = %99
  store i32 255, ptr %13, align 4
  br label %107

103:                                              ; preds = %99
  %104 = load i32, ptr %13, align 4
  %105 = load ptr, ptr %12, align 8
  %106 = getelementptr inbounds %struct.jpeg_decompress_struct, ptr %105, i32 0, i32 76
  store i32 %104, ptr %106, align 4
  br label %118

107:                                              ; preds = %102
  br label %108

108:                                              ; preds = %107, %55
  %109 = load i64, ptr %7, align 8
  %110 = shl i64 %109, 8
  %111 = load i32, ptr %13, align 4
  %112 = sext i32 %111 to i64
  %113 = or i64 %110, %112
  store i64 %113, ptr %7, align 8
  %114 = load i32, ptr %8, align 4
  %115 = add nsw i32 %114, 8
  store i32 %115, ptr %8, align 4
  br label %28, !llvm.loop !16

116:                                              ; preds = %28
  br label %151

117:                                              ; preds = %4
  br label %118

118:                                              ; preds = %117, %103
  %119 = load i32, ptr %9, align 4
  %120 = load i32, ptr %8, align 4
  %121 = icmp sgt i32 %119, %120
  br i1 %121, label %122, label %150

122:                                              ; preds = %118
  %123 = load ptr, ptr %12, align 8
  %124 = getelementptr inbounds %struct.jpeg_decompress_struct, ptr %123, i32 0, i32 83
  %125 = load ptr, ptr %124, align 8
  %126 = getelementptr inbounds %struct.jpeg_entropy_decoder, ptr %125, i32 0, i32 4
  %127 = load i32, ptr %126, align 8
  %128 = icmp ne i32 %127, 0
  br i1 %128, label %144, label %129

129:                                              ; preds = %122
  %130 = load ptr, ptr %12, align 8
  %131 = getelementptr inbounds %struct.jpeg_decompress_struct, ptr %130, i32 0, i32 0
  %132 = load ptr, ptr %131, align 8
  %133 = getelementptr inbounds %struct.jpeg_error_mgr, ptr %132, i32 0, i32 5
  store i32 117, ptr %133, align 8
  %134 = load ptr, ptr %12, align 8
  %135 = getelementptr inbounds %struct.jpeg_decompress_struct, ptr %134, i32 0, i32 0
  %136 = load ptr, ptr %135, align 8
  %137 = getelementptr inbounds %struct.jpeg_error_mgr, ptr %136, i32 0, i32 1
  %138 = load ptr, ptr %137, align 8
  %139 = load ptr, ptr %12, align 8
  call void %138(ptr noundef %139, i32 noundef -1)
  %140 = load ptr, ptr %12, align 8
  %141 = getelementptr inbounds %struct.jpeg_decompress_struct, ptr %140, i32 0, i32 83
  %142 = load ptr, ptr %141, align 8
  %143 = getelementptr inbounds %struct.jpeg_entropy_decoder, ptr %142, i32 0, i32 4
  store i32 1, ptr %143, align 8
  br label %144

144:                                              ; preds = %129, %122
  %145 = load i32, ptr %8, align 4
  %146 = sub nsw i32 57, %145
  %147 = load i64, ptr %7, align 8
  %148 = zext i32 %146 to i64
  %149 = shl i64 %147, %148
  store i64 %149, ptr %7, align 8
  store i32 57, ptr %8, align 4
  br label %150

150:                                              ; preds = %144, %118
  br label %151

151:                                              ; preds = %150, %116
  %152 = load ptr, ptr %10, align 8
  %153 = load ptr, ptr %6, align 8
  %154 = getelementptr inbounds %struct.bitread_working_state, ptr %153, i32 0, i32 0
  store ptr %152, ptr %154, align 8
  %155 = load i64, ptr %11, align 8
  %156 = load ptr, ptr %6, align 8
  %157 = getelementptr inbounds %struct.bitread_working_state, ptr %156, i32 0, i32 1
  store i64 %155, ptr %157, align 8
  %158 = load i64, ptr %7, align 8
  %159 = load ptr, ptr %6, align 8
  %160 = getelementptr inbounds %struct.bitread_working_state, ptr %159, i32 0, i32 2
  store i64 %158, ptr %160, align 8
  %161 = load i32, ptr %8, align 4
  %162 = load ptr, ptr %6, align 8
  %163 = getelementptr inbounds %struct.bitread_working_state, ptr %162, i32 0, i32 3
  store i32 %161, ptr %163, align 8
  store i32 1, ptr %5, align 4
  br label %164

164:                                              ; preds = %151, %77, %43
  %165 = load i32, ptr %5, align 4
  ret i32 %165
}